target datalayout = "e-m:e-p270:32:32-p271:32:32-p272:64:64-i64:64-i128:128-f80:128-n8:16:32:64-S128"
target triple = "x86_64-pc-linux-gnu"

%struct.dt_pthread_mutex_t = type { %union.pthread_mutex_t }
%union.pthread_mutex_t = type { %struct.__pthread_mutex_s }
%struct.__pthread_mutex_s = type { i32, i32, i32, i32, i32, i16, i16, %struct.__pthread_internal_list }
%struct.__pthread_internal_list = type { ptr, ptr }
%struct._GSList = type { ptr, ptr }

@background_running = internal global i32 0, align 4
@pending_images = internal global ptr null, align 8
@lock_initialized = internal global i32 0, align 4
@pending_mutex = internal global %struct.dt_pthread_mutex_t zeroinitializer, align 8

; Function Attrs: inlinehint nounwind uwtable
define internal i32 @dt_pthread_mutex_unlock(ptr noundef %0) #3 {
  %2 = alloca ptr, align 8
  store ptr %0, ptr %2, align 8, !tbaa !63
  %3 = load ptr, ptr %2, align 8, !tbaa !63
  %4 = getelementptr inbounds nuw %struct.dt_pthread_mutex_t, ptr %3, i32 0, i32 0
  %5 = call i32 @pthread_mutex_unlock(ptr noundef %4) #6
  ret i32 %5
}

; Function Attrs: inlinehint nounwind uwtable
define internal i32 @dt_pthread_mutex_lock(ptr noundef %0) #3 {
  %2 = alloca ptr, align 8
  store ptr %0, ptr %2, align 8, !tbaa !63
  %3 = load ptr, ptr %2, align 8, !tbaa !63
  %4 = getelementptr inbounds nuw %struct.dt_pthread_mutex_t, ptr %3, i32 0, i32 0
  %5 = call i32 @pthread_mutex_lock(ptr noundef %4) #6
  ret i32 %5
}

; Function Attrs: inlinehint nounwind uwtable
define internal i32 @dt_pthread_mutex_init(ptr noundef %0, ptr noundef %1) #3 {
  %3 = alloca ptr, align 8
  %4 = alloca ptr, align 8
  store ptr %0, ptr %3, align 8, !tbaa !63
  store ptr %1, ptr %4, align 8, !tbaa !65
  %5 = load ptr, ptr %3, align 8, !tbaa !63
  %6 = getelementptr inbounds nuw %struct.dt_pthread_mutex_t, ptr %5, i32 0, i32 0
  %7 = load ptr, ptr %4, align 8, !tbaa !65
  %8 = call i32 @pthread_mutex_init(ptr noundef %6, ptr noundef %7) #6
  ret i32 %8
}

; Function Attrs: nounwind uwtable
define internal void @_unlock_pending_queue() #0 {
  %1 = load i32, ptr @lock_initialized, align 4, !tbaa !6
  %2 = icmp ne i32 %1, 0
  br i1 %2, label %3, label %5

3:                                                ; preds = %0
  %4 = call i32 @dt_pthread_mutex_unlock(ptr noundef @pending_mutex)
  br label %5

5:                                                ; preds = %3, %0
  ret void
}

; Function Attrs: nounwind uwtable
define internal void @_lock_pending_queue() #0 {
  %1 = load i32, ptr @lock_initialized, align 4, !tbaa !6
  %2 = icmp ne i32 %1, 0
  br i1 %2, label %5, label %3

3:                                                ; preds = %0
  %4 = call i32 @dt_pthread_mutex_init(ptr noundef @pending_mutex, ptr noundef null)
  store i32 1, ptr @lock_initialized, align 4, !tbaa !6
  br label %5

5:                                                ; preds = %3, %0
  %6 = call i32 @dt_pthread_mutex_lock(ptr noundef @pending_mutex)
  ret void
}

; Function Attrs: nounwind uwtable
define void @dt_sidecar_synch_enqueue(i32 noundef %0) #0 {
  %2 = alloca i32, align 4
  %3 = alloca ptr, align 8
  store i32 %0, ptr %2, align 4, !tbaa !6
  %4 = load i32, ptr @background_running, align 4, !tbaa !6
  %5 = icmp ne i32 %4, 0
  br i1 %5, label %6, label %15

6:                                                ; preds = %1
  call void @llvm.lifetime.start.p0(i64 8, ptr %3) #6
  %7 = load i32, ptr %2, align 4, !tbaa !6
  %8 = sext i32 %7 to i64
  %9 = inttoptr i64 %8 to ptr
  %10 = call ptr @g_slist_prepend(ptr noundef null, ptr noundef %9)
  store ptr %10, ptr %3, align 8, !tbaa !10
  call void @_lock_pending_queue()
  %11 = load ptr, ptr @pending_images, align 8, !tbaa !10
  %12 = load ptr, ptr %3, align 8, !tbaa !10
  %13 = getelementptr inbounds nuw %struct._GSList, ptr %12, i32 0, i32 1
  store ptr %11, ptr %13, align 8, !tbaa !13
  %14 = load ptr, ptr %3, align 8, !tbaa !10
  store ptr %14, ptr @pending_images, align 8, !tbaa !10
  call void @_unlock_pending_queue()
  call void @llvm.lifetime.end.p0(i64 8, ptr %3) #6
  br label %18

15:                                               ; preds = %1
  %16 = load i32, ptr %2, align 4, !tbaa !6
  %17 = call i32 @dt_image_write_sidecar_file(i32 noundef %16)
  br label %18

18:                                               ; preds = %15, %6
  ret void
}