; Function Attrs: nounwind uwtable
define void @dt_sidecar_synch_enqueue(i32 noundef %0) local_unnamed_addr #0 {
  %.b = load i1, ptr @background_running, align 4
  br i1 %.b, label %2, label %13

2:                                                ; preds = %1
  %3 = sext i32 %0 to i64
  %4 = inttoptr i64 %3 to ptr
  %5 = tail call ptr @g_slist_prepend(ptr noundef null, ptr noundef %4) #6
  %.b.i = load i1, ptr @lock_initialized, align 4
  br i1 %.b.i, label %_lock_pending_queue.exit, label %6

6:                                                ; preds = %2
  %7 = tail call i32 @pthread_mutex_init(ptr noundef nonnull @pending_mutex, ptr noundef null) #6
  store i1 true, ptr @lock_initialized, align 4
  br label %_lock_pending_queue.exit

_lock_pending_queue.exit:                         ; preds = %2, %6
  %8 = tail call i32 @pthread_mutex_lock(ptr noundef nonnull @pending_mutex) #6
  %9 = load ptr, ptr @pending_images, align 8, !tbaa !6
  %10 = getelementptr inbounds nuw i8, ptr %5, i64 8
  store ptr %9, ptr %10, align 8, !tbaa !11
  store ptr %5, ptr @pending_images, align 8, !tbaa !6
  %.b.i3 = load i1, ptr @lock_initialized, align 4
  br i1 %.b.i3, label %11, label %_unlock_pending_queue.exit

11:                                               ; preds = %_lock_pending_queue.exit
  %12 = tail call i32 @pthread_mutex_unlock(ptr noundef nonnull @pending_mutex) #6
  br label %_unlock_pending_queue.exit

13:                                               ; preds = %1
  %14 = tail call i32 @dt_image_write_sidecar_file(i32 noundef %0) #6
  br label %_unlock_pending_queue.exit

_unlock_pending_queue.exit:                       ; preds = %11, %_lock_pending_queue.exit, %13
  ret void
}